target datalayout = "e-m:e-p270:32:32-p271:32:32-p272:64:64-i64:64-i128:128-f80:128-n8:16:32:64-S128"
target triple = "x86_64-unknown-linux-gnu"

%struct.ASN1_ITEM_st = type { i8, i64, ptr, i64, ptr, i64, ptr }

@X509_PUBKEY_it = hidden constant %struct.ASN1_ITEM_st { i8 1, i64 16, ptr @X509_PUBKEY_seq_tt, i64 2, ptr @X509_PUBKEY_aux, i64 24, ptr @.str }, align 8
@.str.1 = private unnamed_addr constant [126 x i8] c"generated/home/dtcxzyw/WorkSpace/Projects/compilers/llvm-opt-benchmark/bench/libquic/libquic/boringssl/crypto/x509/x_pubkey.c\00", align 1

; Function Attrs: nounwind uwtable
define hidden void @X509_PUBKEY_free(ptr noundef %a) #0 {
entry:
  %a.addr = alloca ptr, align 8
  store ptr %a, ptr %a.addr, align 8
  %0 = load ptr, ptr %a.addr, align 8
  call void @ASN1_item_free(ptr noundef %0, ptr noundef @X509_PUBKEY_it)
  ret void
}

; Function Attrs: nounwind uwtable
define hidden i32 @i2d_X509_PUBKEY(ptr noundef %a, ptr noundef %out) #0 {
entry:
  %a.addr = alloca ptr, align 8
  %out.addr = alloca ptr, align 8
  store ptr %a, ptr %a.addr, align 8
  store ptr %out, ptr %out.addr, align 8
  %0 = load ptr, ptr %a.addr, align 8
  %1 = load ptr, ptr %out.addr, align 8
  %call = call i32 @ASN1_item_i2d(ptr noundef %0, ptr noundef %1, ptr noundef @X509_PUBKEY_it)
  ret i32 %call
}

; Function Attrs: nounwind uwtable
define hidden i32 @i2d_PUBKEY(ptr noundef %a, ptr noundef %pp) #0 {
entry:
  %retval = alloca i32, align 4
  %a.addr = alloca ptr, align 8
  %pp.addr = alloca ptr, align 8
  %xpk = alloca ptr, align 8
  %ret = alloca i32, align 4
  store ptr %a, ptr %a.addr, align 8
  store ptr %pp, ptr %pp.addr, align 8
  store ptr null, ptr %xpk, align 8
  %0 = load ptr, ptr %a.addr, align 8
  %tobool = icmp ne ptr %0, null
  br i1 %tobool, label %if.end, label %if.then

if.then:                                          ; preds = %entry
  store i32 0, ptr %retval, align 4
  br label %return

if.end:                                           ; preds = %entry
  %1 = load ptr, ptr %a.addr, align 8
  %call = call i32 @X509_PUBKEY_set(ptr noundef %xpk, ptr noundef %1)
  %tobool1 = icmp ne i32 %call, 0
  br i1 %tobool1, label %if.end3, label %if.then2

if.then2:                                         ; preds = %if.end
  store i32 0, ptr %retval, align 4
  br label %return

if.end3:                                          ; preds = %if.end
  %2 = load ptr, ptr %xpk, align 8
  %3 = load ptr, ptr %pp.addr, align 8
  %call4 = call i32 @i2d_X509_PUBKEY(ptr noundef %2, ptr noundef %3)
  store i32 %call4, ptr %ret, align 4
  %4 = load ptr, ptr %xpk, align 8
  call void @X509_PUBKEY_free(ptr noundef %4)
  %5 = load i32, ptr %ret, align 4
  store i32 %5, ptr %retval, align 4
  br label %return

return:                                           ; preds = %if.end3, %if.then2, %if.then
  %6 = load i32, ptr %retval, align 4
  ret i32 %6
}

; Function Attrs: nounwind uwtable
define hidden i32 @i2d_EC_PUBKEY(ptr noundef %a, ptr noundef %pp) #0 {
entry:
  %retval = alloca i32, align 4
  %a.addr = alloca ptr, align 8
  %pp.addr = alloca ptr, align 8
  %pktmp = alloca ptr, align 8
  %ret = alloca i32, align 4
  store ptr %a, ptr %a.addr, align 8
  store ptr %pp, ptr %pp.addr, align 8
  %0 = load ptr, ptr %a.addr, align 8
  %tobool = icmp ne ptr %0, null
  br i1 %tobool, label %if.end, label %if.then

if.then:                                          ; preds = %entry
  store i32 0, ptr %retval, align 4
  br label %return

if.end:                                           ; preds = %entry
  %call = call ptr @EVP_PKEY_new()
  store ptr %call, ptr %pktmp, align 8
  %cmp = icmp eq ptr %call, null
  br i1 %cmp, label %if.then1, label %if.end2

if.then1:                                         ; preds = %if.end
  call void @ERR_put_error(i32 noundef 11, i32 noundef 0, i32 noundef 65, ptr noundef @.str.1, i32 noundef 326)
  store i32 0, ptr %retval, align 4
  br label %return

if.end2:                                          ; preds = %if.end
  %1 = load ptr, ptr %pktmp, align 8
  %2 = load ptr, ptr %a.addr, align 8
  %call3 = call i32 @EVP_PKEY_set1_EC_KEY(ptr noundef %1, ptr noundef %2)
  %3 = load ptr, ptr %pktmp, align 8
  %4 = load ptr, ptr %pp.addr, align 8
  %call4 = call i32 @i2d_PUBKEY(ptr noundef %3, ptr noundef %4)
  store i32 %call4, ptr %ret, align 4
  %5 = load ptr, ptr %pktmp, align 8
  call void @EVP_PKEY_free(ptr noundef %5)
  %6 = load i32, ptr %ret, align 4
  store i32 %6, ptr %retval, align 4
  br label %return

return:                                           ; preds = %if.end2, %if.then1, %if.then
  %7 = load i32, ptr %retval, align 4
  ret i32 %7
}